; Function Attrs: mustprogress nounwind uwtable
define void @_ZN6icu_7522CompoundTransliteratorD2Ev(ptr noundef nonnull align 8 dereferenceable(104) %this) unnamed_addr #5 align 2 personality ptr @__gxx_personality_v0 {
entry:
  store ptr getelementptr inbounds ({ [21 x ptr] }, ptr @_ZTVN6icu_7522CompoundTransliteratorE, i64 0, i32 0, i64 2), ptr %this, align 8
  %trans.i = getelementptr inbounds i8, ptr %this, i64 88
  %0 = load ptr, ptr %trans.i, align 8
  %cmp.not.i = icmp eq ptr %0, null
  br i1 %cmp.not.i, label %invoke.cont, label %for.cond.preheader.i

for.cond.preheader.i:                             ; preds = %entry
  %count.i = getelementptr inbounds i8, ptr %this, i64 96
  %1 = load i32, ptr %count.i, align 8
  %cmp23.i = icmp sgt i32 %1, 0
  br i1 %cmp23.i, label %for.body.i, label %for.end.i

for.body.i:                                       ; preds = %for.cond.preheader.i, %for.inc.i
  %2 = phi i32 [ %6, %for.inc.i ], [ %1, %for.cond.preheader.i ]
  %indvars.iv.i = phi i64 [ %indvars.iv.next.i, %for.inc.i ], [ 0, %for.cond.preheader.i ]
  %3 = load ptr, ptr %trans.i, align 8
  %arrayidx.i = getelementptr inbounds ptr, ptr %3, i64 %indvars.iv.i
  %4 = load ptr, ptr %arrayidx.i, align 8
  %isnull.i = icmp eq ptr %4, null
  br i1 %isnull.i, label %for.inc.i, label %delete.notnull.i

delete.notnull.i:                                 ; preds = %for.body.i
  %vtable.i = load ptr, ptr %4, align 8
  %vfn.i = getelementptr inbounds i8, ptr %vtable.i, i64 8
  %5 = load ptr, ptr %vfn.i, align 8
  tail call void %5(ptr noundef nonnull align 8 dereferenceable(84) %4) #13
  %.pre.i = load i32, ptr %count.i, align 8
  br label %for.inc.i

for.inc.i:                                        ; preds = %delete.notnull.i, %for.body.i
  %6 = phi i32 [ %2, %for.body.i ], [ %.pre.i, %delete.notnull.i ]
  %indvars.iv.next.i = add nuw nsw i64 %indvars.iv.i, 1
  %7 = sext i32 %6 to i64
  %cmp2.i = icmp slt i64 %indvars.iv.next.i, %7
  br i1 %cmp2.i, label %for.body.i, label %for.end.loopexit.i, !llvm.loop !17

for.end.loopexit.i:                               ; preds = %for.inc.i
  %.pre6.i = load ptr, ptr %trans.i, align 8
  br label %for.end.i

for.end.i:                                        ; preds = %for.end.loopexit.i, %for.cond.preheader.i
  %8 = phi ptr [ %.pre6.i, %for.end.loopexit.i ], [ %0, %for.cond.preheader.i ]
  invoke void @uprv_free_75(ptr noundef %8)
          to label %invoke.cont unwind label %terminate.lpad

invoke.cont:                                      ; preds = %entry, %for.end.i
  store ptr null, ptr %trans.i, align 8
  %count6.i = getelementptr inbounds i8, ptr %this, i64 96
  store i32 0, ptr %count6.i, align 8
  tail call void @_ZN6icu_7514TransliteratorD2Ev(ptr noundef nonnull align 8 dereferenceable(84) %this) #13
  ret void

terminate.lpad:                                   ; preds = %for.end.i
  %9 = landingpad { ptr, i32 }
          catch ptr null
  %10 = extractvalue { ptr, i32 } %9, 0
  tail call void @__clang_call_terminate(ptr %10) #15
  unreachable
}